; Function Attrs: nounwind uwtable
define hidden i32 @ssl3_get_server_done(ptr noundef %0) local_unnamed_addr #0 {
  %2 = alloca i32, align 4
  call void @llvm.lifetime.start.p0(i64 4, ptr nonnull %2) #11
  %3 = getelementptr inbounds nuw i8, ptr %0, i64 8
  %4 = load ptr, ptr %3, align 8, !tbaa !70
  %5 = getelementptr inbounds nuw i8, ptr %4, i64 40
  %6 = load ptr, ptr %5, align 8, !tbaa !71
  %7 = call i64 %6(ptr noundef %0, i32 noundef 4448, i32 noundef 4449, i32 noundef 14, i64 noundef 30, i32 noundef 1, ptr noundef nonnull %2) #11
  %8 = load i32, ptr %2, align 4, !tbaa !73
  %.not = icmp eq i32 %8, 0
  br i1 %.not, label %9, label %11

9:                                                ; preds = %1
  %10 = trunc i64 %7 to i32
  br label %15

11:                                               ; preds = %1
  %12 = icmp sgt i64 %7, 0
  br i1 %12, label %13, label %15

13:                                               ; preds = %11
  %14 = call i32 @ssl3_send_alert(ptr noundef nonnull %0, i32 noundef 2, i32 noundef 50) #11
  call void @ERR_put_error(i32 noundef 16, i32 noundef 0, i32 noundef 162, ptr noundef nonnull @.str, i32 noundef 1545) #11
  br label %15

15:                                               ; preds = %11, %13, %9
  %.0 = phi i32 [ -1, %13 ], [ %10, %9 ], [ 1, %11 ]
  call void @llvm.lifetime.end.p0(i64 4, ptr nonnull %2) #11
  ret i32 %.0
}